target datalayout = "e-m:e-p270:32:32-p271:32:32-p272:64:64-i64:64-i128:128-f80:128-n8:16:32:64-S128"
target triple = "x86_64-pc-linux-gnu"

@_ZTIN6icu_7713BreakIteratorE = external constant ptr
@_ZTIN6icu_7722RuleBasedBreakIteratorE = external constant ptr

; Function Attrs: inlinehint mustprogress nounwind uwtable
define internal noundef signext i8 @_ZL9U_FAILURE10UErrorCode(i32 noundef %0) #1 {
  %2 = alloca i32, align 4
  store i32 %0, ptr %2, align 4, !tbaa !15
  %3 = load i32, ptr %2, align 4, !tbaa !15
  %4 = icmp sgt i32 %3, 0
  %5 = zext i1 %4 to i8
  ret i8 %5
}

; Function Attrs: mustprogress uwtable
define i32 @ubrk_getBinaryRules_77(ptr noundef %0, ptr noundef %1, i32 noundef %2, ptr noundef %3) #0 {
  %5 = alloca i32, align 4
  %6 = alloca ptr, align 8
  %7 = alloca ptr, align 8
  %8 = alloca i32, align 4
  %9 = alloca ptr, align 8
  %10 = alloca ptr, align 8
  %11 = alloca i32, align 4
  %12 = alloca i32, align 4
  %13 = alloca ptr, align 8
  store ptr %0, ptr %6, align 8, !tbaa !19
  store ptr %1, ptr %7, align 8, !tbaa !7
  store i32 %2, ptr %8, align 4, !tbaa !12
  store ptr %3, ptr %9, align 8, !tbaa !14
  %14 = load ptr, ptr %9, align 8, !tbaa !14
  %15 = load i32, ptr %14, align 4, !tbaa !15
  %16 = call noundef signext i8 @_ZL9U_FAILURE10UErrorCode(i32 noundef %15)
  %17 = icmp ne i8 %16, 0
  br i1 %17, label %18, label %19

18:                                               ; preds = %4
  store i32 0, ptr %5, align 4
  br label %73

19:                                               ; preds = %4
  %20 = load ptr, ptr %7, align 8, !tbaa !7
  %21 = icmp eq ptr %20, null
  br i1 %21, label %22, label %25

22:                                               ; preds = %19
  %23 = load i32, ptr %8, align 4, !tbaa !12
  %24 = icmp sgt i32 %23, 0
  br i1 %24, label %28, label %25

25:                                               ; preds = %22, %19
  %26 = load i32, ptr %8, align 4, !tbaa !12
  %27 = icmp slt i32 %26, 0
  br i1 %27, label %28, label %30

28:                                               ; preds = %25, %22
  %29 = load ptr, ptr %9, align 8, !tbaa !14
  store i32 1, ptr %29, align 4, !tbaa !15
  store i32 0, ptr %5, align 4
  br label %73

30:                                               ; preds = %25
  call void @llvm.lifetime.start.p0(i64 8, ptr %10) #9
  %31 = load ptr, ptr %6, align 8, !tbaa !19
  %32 = icmp eq ptr %31, null
  br i1 %32, label %35, label %33

33:                                               ; preds = %30
  %34 = call ptr @__dynamic_cast(ptr %31, ptr @_ZTIN6icu_7713BreakIteratorE, ptr @_ZTIN6icu_7722RuleBasedBreakIteratorE, i64 0) #9
  br label %36

35:                                               ; preds = %30
  br label %36

36:                                               ; preds = %35, %33
  %37 = phi ptr [ %34, %33 ], [ null, %35 ]
  store ptr %37, ptr %10, align 8, !tbaa !27
  %38 = icmp eq ptr %37, null
  br i1 %38, label %39, label %41

39:                                               ; preds = %36
  %40 = load ptr, ptr %9, align 8, !tbaa !14
  store i32 1, ptr %40, align 4, !tbaa !15
  store i32 0, ptr %5, align 4
  store i32 1, ptr %11, align 4
  br label %72

41:                                               ; preds = %36
  call void @llvm.lifetime.start.p0(i64 4, ptr %12) #9
  call void @llvm.lifetime.start.p0(i64 8, ptr %13) #9
  %42 = load ptr, ptr %10, align 8, !tbaa !27
  %43 = load ptr, ptr %42, align 8, !tbaa !21
  %44 = getelementptr inbounds ptr, ptr %43, i64 25
  %45 = load ptr, ptr %44, align 8
  %46 = call noundef ptr %45(ptr noundef nonnull align 8 dereferenceable(297) %42, ptr noundef nonnull align 4 dereferenceable(4) %12)
  store ptr %46, ptr %13, align 8, !tbaa !7
  %47 = load i32, ptr %12, align 4, !tbaa !12
  %48 = icmp ugt i32 %47, 2147483647
  br i1 %48, label %49, label %51

49:                                               ; preds = %41
  %50 = load ptr, ptr %9, align 8, !tbaa !14
  store i32 8, ptr %50, align 4, !tbaa !15
  store i32 0, ptr %5, align 4
  store i32 1, ptr %11, align 4
  br label %71

51:                                               ; preds = %41
  %52 = load ptr, ptr %7, align 8, !tbaa !7
  %53 = icmp ne ptr %52, null
  br i1 %53, label %54, label %69

54:                                               ; preds = %51
  %55 = load i32, ptr %12, align 4, !tbaa !12
  %56 = load i32, ptr %8, align 4, !tbaa !12
  %57 = icmp sgt i32 %55, %56
  br i1 %57, label %58, label %60

58:                                               ; preds = %54
  %59 = load ptr, ptr %9, align 8, !tbaa !14
  store i32 15, ptr %59, align 4, !tbaa !15
  br label %68

60:                                               ; preds = %54
  br label %61

61:                                               ; preds = %60
  %62 = load ptr, ptr %7, align 8, !tbaa !7
  %63 = load ptr, ptr %13, align 8, !tbaa !7
  %64 = load i32, ptr %12, align 4, !tbaa !12
  %65 = zext i32 %64 to i64
  call void @llvm.memcpy.p0.p0.i64(ptr align 1 %62, ptr align 1 %63, i64 %65, i1 false)
  br label %66

66:                                               ; preds = %61
  br label %67

67:                                               ; preds = %66
  br label %68

68:                                               ; preds = %67, %58
  br label %69

69:                                               ; preds = %68, %51
  %70 = load i32, ptr %12, align 4, !tbaa !12
  store i32 %70, ptr %5, align 4
  store i32 1, ptr %11, align 4
  br label %71

71:                                               ; preds = %69, %49
  call void @llvm.lifetime.end.p0(i64 8, ptr %13) #9
  call void @llvm.lifetime.end.p0(i64 4, ptr %12) #9
  br label %72

72:                                               ; preds = %71, %39
  call void @llvm.lifetime.end.p0(i64 8, ptr %10) #9
  br label %73

73:                                               ; preds = %72, %28, %18
  %74 = load i32, ptr %5, align 4
  ret i32 %74
}