; Function Attrs: mustprogress uwtable
define range(i32 0, -2147483648) i32 @ubrk_getBinaryRules_77(ptr noundef %0, ptr noundef writeonly %1, i32 noundef %2, ptr noundef captures(none) %3) local_unnamed_addr #0 {
  %5 = alloca i32, align 4
  %6 = load i32, ptr %3, align 4, !tbaa !3
  %7 = icmp slt i32 %6, 1
  br i1 %7, label %8, label %33

8:                                                ; preds = %4
  %9 = icmp eq ptr %1, null
  %10 = icmp sgt i32 %2, 0
  %or.cond = and i1 %9, %10
  %11 = icmp slt i32 %2, 0
  %or.cond3 = or i1 %11, %or.cond
  br i1 %or.cond3, label %12, label %13

12:                                               ; preds = %8
  store i32 1, ptr %3, align 4, !tbaa !3
  br label %33

13:                                               ; preds = %8
  %14 = icmp eq ptr %0, null
  br i1 %14, label %.thread, label %15

15:                                               ; preds = %13
  %16 = tail call ptr @__dynamic_cast(ptr nonnull %0, ptr nonnull @_ZTIN6icu_7713BreakIteratorE, ptr nonnull @_ZTIN6icu_7722RuleBasedBreakIteratorE, i64 0) #8
  %17 = icmp eq ptr %16, null
  br i1 %17, label %.thread, label %18

.thread:                                          ; preds = %13, %15
  store i32 1, ptr %3, align 4, !tbaa !3
  br label %33

18:                                               ; preds = %15
  call void @llvm.lifetime.start.p0(i64 4, ptr nonnull %5) #8
  %19 = load ptr, ptr %16, align 8, !tbaa !7
  %20 = getelementptr inbounds nuw i8, ptr %19, i64 200
  %21 = load ptr, ptr %20, align 8
  %22 = call noundef ptr %21(ptr noundef nonnull align 8 dereferenceable(297) %16, ptr noundef nonnull align 4 dereferenceable(4) %5)
  %23 = load i32, ptr %5, align 4, !tbaa !9
  %24 = icmp slt i32 %23, 0
  br i1 %24, label %25, label %26

25:                                               ; preds = %18
  store i32 8, ptr %3, align 4, !tbaa !3
  br label %32

26:                                               ; preds = %18
  br i1 %9, label %32, label %27

27:                                               ; preds = %26
  %28 = icmp samesign ugt i32 %23, %2
  br i1 %28, label %29, label %30

29:                                               ; preds = %27
  store i32 15, ptr %3, align 4, !tbaa !3
  br label %32

30:                                               ; preds = %27
  %31 = zext nneg i32 %23 to i64
  call void @llvm.memcpy.p0.p0.i64(ptr nonnull align 1 %1, ptr align 1 %22, i64 %31, i1 false)
  br label %32

32:                                               ; preds = %26, %30, %29, %25
  %.2 = phi i32 [ 0, %25 ], [ %23, %29 ], [ %23, %30 ], [ %23, %26 ]
  call void @llvm.lifetime.end.p0(i64 4, ptr nonnull %5) #8
  br label %33

33:                                               ; preds = %.thread, %32, %4, %12
  %.0 = phi i32 [ 0, %12 ], [ 0, %4 ], [ 0, %.thread ], [ %.2, %32 ]
  ret i32 %.0
}